
cmp3:	file format ELF32-mips

Disassembly of section .init:
_init:
  400490:	02 00 1c 3c                                  	lui	$gp, 2
  400494:	00 85 9c 27                                  	addiu	$gp, $gp, -31488
  400498:	21 e0 99 03                                  	addu	$gp, $gp, $25
  40049c:	e0 ff bd 27                                  	addiu	$sp, $sp, -32
  4004a0:	10 00 bc af                                  	sw	$gp, 16($sp)
  4004a4:	1c 00 bf af                                  	sw	$ra, 28($sp)
  4004a8:	4c 80 82 8f                                  	lw	$2, -32692($gp)
  4004ac:	00 00 00 00                                  	nop
  4004b0:	05 00 40 10                                  	beqz	$2, 24
  4004b4:	00 00 00 00                                  	nop
  4004b8:	4c 80 99 8f                                  	lw	$25, -32692($gp)
  4004bc:	00 00 00 00                                  	nop
  4004c0:	09 f8 20 03                                  	jalr	$25
  4004c4:	00 00 00 00                                  	nop
  4004c8:	01 00 11 04                                  	bal	8
  4004cc:	00 00 00 00                                  	nop
  4004d0:	42 00 1c 3c                                  	lui	$gp, 66
  4004d4:	90 89 9c 27                                  	addiu	$gp, $gp, -30320
  4004d8:	24 80 99 8f                                  	lw	$25, -32732($gp)
  4004dc:	00 00 00 00                                  	nop
  4004e0:	d0 06 39 27                                  	addiu	$25, $25, 1744
  4004e4:	7a 00 11 04                                  	bal	492
  4004e8:	00 00 00 00                                  	nop
  4004ec:	10 00 bc 8f                                  	lw	$gp, 16($sp)
  4004f0:	00 00 00 00                                  	nop
  4004f4:	01 00 11 04                                  	bal	8
  4004f8:	00 00 00 00                                  	nop
  4004fc:	42 00 1c 3c                                  	lui	$gp, 66
  400500:	90 89 9c 27                                  	addiu	$gp, $gp, -30320
  400504:	24 80 99 8f                                  	lw	$25, -32732($gp)
  400508:	00 00 00 00                                  	nop
  40050c:	90 08 39 27                                  	addiu	$25, $25, 2192
  400510:	df 00 11 04                                  	bal	896
  400514:	00 00 00 00                                  	nop
  400518:	1c 00 bf 8f                                  	lw	$ra, 28($sp)
  40051c:	00 00 00 00                                  	nop
  400520:	08 00 e0 03                                  	jr	$ra
  400524:	20 00 bd 27                                  	addiu	$sp, $sp, 32
Disassembly of section .text:
_ftext:
  400530:	21 00 e0 03                                  	move	 $zero, $ra
  400534:	01 00 11 04                                  	bal	8
  400538:	00 00 00 00                                  	nop
  40053c:	42 00 1c 3c                                  	lui	$gp, 66
  400540:	90 89 9c 27                                  	addiu	$gp, $gp, -30320
  400544:	21 f8 00 00                                  	move	 $ra, $zero
  400548:	18 80 84 8f                                  	lw	$4, -32744($gp)
  40054c:	00 00 a5 8f                                  	lw	$5, 0($sp)
  400550:	04 00 a6 27                                  	addiu	$6, $sp, 4
  400554:	f8 ff 01 24                                  	addiu	$1, $zero, -8
  400558:	24 e8 a1 03                                  	and	$sp, $sp, $1
  40055c:	e0 ff bd 27                                  	addiu	$sp, $sp, -32
  400560:	1c 80 87 8f                                  	lw	$7, -32740($gp)
  400564:	20 80 88 8f                                  	lw	$8, -32736($gp)
  400568:	00 00 00 00                                  	nop
  40056c:	10 00 a8 af                                  	sw	$8, 16($sp)
  400570:	14 00 a2 af                                  	sw	$2, 20($sp)
  400574:	18 00 bd af                                  	sw	$sp, 24($sp)
  400578:	48 80 99 8f                                  	lw	$25, -32696($gp)
  40057c:	00 00 00 00                                  	nop
  400580:	09 f8 20 03                                  	jalr	$25
  400584:	00 00 00 00                                  	nop

hlt:
  400588:	ff ff 00 10                                  	b	0
  40058c:	00 00 00 00                                  	nop

deregister_tm_clones:
  400590:	41 00 04 3c                                  	lui	$4, 65
  400594:	41 00 02 3c                                  	lui	$2, 65
  400598:	94 09 84 24                                  	addiu	$4, $4, 2452
  40059c:	97 09 42 24                                  	addiu	$2, $2, 2455
  4005a0:	23 10 44 00                                  	subu	$2, $2, $4
  4005a4:	07 00 42 2c                                  	sltiu	$2, $2, 7
  4005a8:	03 00 40 10                                  	beqz	$2, 16
  4005ac:	42 00 1c 3c                                  	lui	$gp, 66
  4005b0:	08 00 e0 03                                  	jr	$ra
  4005b4:	00 00 00 00                                  	nop
  4005b8:	90 89 9c 27                                  	addiu	$gp, $gp, -30320
  4005bc:	50 80 99 8f                                  	lw	$25, -32688($gp)
  4005c0:	00 00 00 00                                  	nop
  4005c4:	fa ff 20 13                                  	beqz	$25, 4294967276
  4005c8:	00 00 00 00                                  	nop
  4005cc:	08 00 20 03                                  	jr	$25
  4005d0:	00 00 00 00                                  	nop

register_tm_clones:
  4005d4:	41 00 04 3c                                  	lui	$4, 65
  4005d8:	41 00 02 3c                                  	lui	$2, 65
  4005dc:	94 09 84 24                                  	addiu	$4, $4, 2452
  4005e0:	94 09 42 24                                  	addiu	$2, $2, 2452
  4005e4:	23 10 44 00                                  	subu	$2, $2, $4
  4005e8:	83 10 02 00                                  	sra	$2, $2, 2
  4005ec:	c2 1f 02 00                                  	srl	$3, $2, 31
  4005f0:	21 10 62 00                                  	addu	$2, $3, $2
  4005f4:	43 28 02 00                                  	sra	$5, $2, 1
  4005f8:	03 00 a0 14                                  	bnez	$5, 16
  4005fc:	42 00 1c 3c                                  	lui	$gp, 66
  400600:	08 00 e0 03                                  	jr	$ra
  400604:	00 00 00 00                                  	nop
  400608:	90 89 9c 27                                  	addiu	$gp, $gp, -30320
  40060c:	40 80 99 8f                                  	lw	$25, -32704($gp)
  400610:	00 00 00 00                                  	nop
  400614:	fa ff 20 13                                  	beqz	$25, 4294967276
  400618:	00 00 00 00                                  	nop
  40061c:	08 00 20 03                                  	jr	$25
  400620:	00 00 00 00                                  	nop

__do_global_dtors_aux:
  400624:	d0 ff bd 27                                  	addiu	$sp, $sp, -48
  400628:	28 00 b3 af                                  	sw	$19, 40($sp)
  40062c:	41 00 13 3c                                  	lui	$19, 65
  400630:	f0 09 62 92                                  	lbu	$2, 2544($19)
  400634:	2c 00 bf af                                  	sw	$ra, 44($sp)
  400638:	24 00 b2 af                                  	sw	$18, 36($sp)
  40063c:	20 00 b1 af                                  	sw	$17, 32($sp)
  400640:	1c 00 40 14                                  	bnez	$2, 116
  400644:	1c 00 b0 af                                  	sw	$16, 28($sp)
  400648:	41 00 12 3c                                  	lui	$18, 65
  40064c:	41 00 11 3c                                  	lui	$17, 65
  400650:	6c 09 52 26                                  	addiu	$18, $18, 2412
  400654:	70 09 31 26                                  	addiu	$17, $17, 2416
  400658:	41 00 10 3c                                  	lui	$16, 65
  40065c:	23 88 32 02                                  	subu	$17, $17, $18
  400660:	f4 09 02 8e                                  	lw	$2, 2548($16)
  400664:	83 88 11 00                                  	sra	$17, $17, 2
  400668:	ff ff 31 26                                  	addiu	$17, $17, -1
  40066c:	2b 18 51 00                                  	sltu	$3, $2, $17
  400670:	0c 00 60 10                                  	beqz	$3, 52
  400674:	01 00 42 24                                  	addiu	$2, $2, 1
  400678:	80 18 02 00                                  	sll	$3, $2, 2
  40067c:	21 18 43 02                                  	addu	$3, $18, $3
  400680:	00 00 79 8c                                  	lw	$25, 0($3)
  400684:	00 00 00 00                                  	nop
  400688:	09 f8 20 03                                  	jalr	$25
  40068c:	f4 09 02 ae                                  	sw	$2, 2548($16)
  400690:	f4 09 02 8e                                  	lw	$2, 2548($16)
  400694:	00 00 00 00                                  	nop
  400698:	2b 18 51 00                                  	sltu	$3, $2, $17
  40069c:	f6 ff 60 14                                  	bnez	$3, 4294967260
  4006a0:	01 00 42 24                                  	addiu	$2, $2, 1
  4006a4:	64 01 10 0c                                  	jal	4195728
  4006a8:	00 00 00 00                                  	nop
  4006ac:	01 00 02 24                                  	addiu	$2, $zero, 1
  4006b0:	f0 09 62 a2                                  	sb	$2, 2544($19)
  4006b4:	2c 00 bf 8f                                  	lw	$ra, 44($sp)
  4006b8:	28 00 b3 8f                                  	lw	$19, 40($sp)
  4006bc:	24 00 b2 8f                                  	lw	$18, 36($sp)
  4006c0:	20 00 b1 8f                                  	lw	$17, 32($sp)
  4006c4:	1c 00 b0 8f                                  	lw	$16, 28($sp)
  4006c8:	08 00 e0 03                                  	jr	$ra
  4006cc:	30 00 bd 27                                  	addiu	$sp, $sp, 48

frame_dummy:
  4006d0:	41 00 04 3c                                  	lui	$4, 65
  4006d4:	74 09 82 8c                                  	lw	$2, 2420($4)
  4006d8:	00 00 00 00                                  	nop
  4006dc:	0e 00 40 10                                  	beqz	$2, 60
  4006e0:	00 00 00 00                                  	nop
  4006e4:	42 00 1c 3c                                  	lui	$gp, 66
  4006e8:	e0 ff bd 27                                  	addiu	$sp, $sp, -32
  4006ec:	90 89 9c 27                                  	addiu	$gp, $gp, -30320
  4006f0:	44 80 99 8f                                  	lw	$25, -32700($gp)
  4006f4:	1c 00 bf af                                  	sw	$ra, 28($sp)
  4006f8:	04 00 20 13                                  	beqz	$25, 20
  4006fc:	10 00 bc af                                  	sw	$gp, 16($sp)
  400700:	09 f8 20 03                                  	jalr	$25
  400704:	74 09 84 24                                  	addiu	$4, $4, 2420
  400708:	10 00 bc 8f                                  	lw	$gp, 16($sp)
  40070c:	1c 00 bf 8f                                  	lw	$ra, 28($sp)
  400710:	75 01 10 08                                  	j	4195796
  400714:	20 00 bd 27                                  	addiu	$sp, $sp, 32
  400718:	75 01 10 08                                  	j	4195796
  40071c:	00 00 00 00                                  	nop

sfe_main:
  400720:	42 00 1c 3c                                  	lui	$gp, 66
  400724:	90 89 9c 27                                  	addiu	$gp, $gp, -30320
  400728:	f8 ff bd 27                                  	addiu	$sp, $sp, -8
  40072c:	04 00 be af                                  	sw	$fp, 4($sp)
  400730:	21 f0 a0 03                                  	move	 $fp, $sp
  400734:	08 00 c4 af                                  	sw	$4, 8($fp)
  400738:	0c 00 c5 af                                  	sw	$5, 12($fp)
  40073c:	08 00 c3 8f                                  	lw	$3, 8($fp)
  400740:	0c 00 c2 8f                                  	lw	$2, 12($fp)
  400744:	00 00 00 00                                  	nop
  400748:	26 10 62 00                                  	xor	$2, $3, $2
  40074c:	2b 10 02 00                                  	sltu	$2, $zero, $2
  400750:	ff 00 42 30                                  	andi	$2, $2, 255
  400754:	21 e8 c0 03                                  	move	 $sp, $fp
  400758:	04 00 be 8f                                  	lw	$fp, 4($sp)
  40075c:	08 00 bd 27                                  	addiu	$sp, $sp, 8
  400760:	08 00 e0 03                                  	jr	$ra
  400764:	00 00 00 00                                  	nop

main:
  400768:	42 00 1c 3c                                  	lui	$gp, 66
  40076c:	90 89 9c 27                                  	addiu	$gp, $gp, -30320
  400770:	e0 ff bd 27                                  	addiu	$sp, $sp, -32
  400774:	1c 00 bf af                                  	sw	$ra, 28($sp)
  400778:	18 00 be af                                  	sw	$fp, 24($sp)
  40077c:	21 f0 a0 03                                  	move	 $fp, $sp
  400780:	10 00 bc af                                  	sw	$gp, 16($sp)
  400784:	20 00 c4 af                                  	sw	$4, 32($fp)
  400788:	24 00 c5 af                                  	sw	$5, 36($fp)
  40078c:	01 00 04 24                                  	addiu	$4, $zero, 1
  400790:	02 00 05 24                                  	addiu	$5, $zero, 2
  400794:	28 80 99 8f                                  	lw	$25, -32728($gp)
  400798:	00 00 00 00                                  	nop
  40079c:	e0 ff 11 04                                  	bal	4294967172
  4007a0:	00 00 00 00                                  	nop
  4007a4:	10 00 dc 8f                                  	lw	$gp, 16($fp)
  4007a8:	21 10 00 00                                  	move	 $2, $zero
  4007ac:	21 e8 c0 03                                  	move	 $sp, $fp
  4007b0:	1c 00 bf 8f                                  	lw	$ra, 28($sp)
  4007b4:	18 00 be 8f                                  	lw	$fp, 24($sp)
  4007b8:	20 00 bd 27                                  	addiu	$sp, $sp, 32
  4007bc:	08 00 e0 03                                  	jr	$ra
  4007c0:	00 00 00 00                                  	nop
  4007c4:	00 00 00 00                                  	nop
  4007c8:	00 00 00 00                                  	nop
  4007cc:	00 00 00 00                                  	nop

__libc_csu_init:
  4007d0:	02 00 1c 3c                                  	lui	$gp, 2
  4007d4:	c0 81 9c 27                                  	addiu	$gp, $gp, -32320
  4007d8:	21 e0 99 03                                  	addu	$gp, $gp, $25
  4007dc:	c8 ff bd 27                                  	addiu	$sp, $sp, -56
  4007e0:	2c 80 99 8f                                  	lw	$25, -32724($gp)
  4007e4:	10 00 bc af                                  	sw	$gp, 16($sp)
  4007e8:	30 00 b5 af                                  	sw	$21, 48($sp)
  4007ec:	2c 00 b4 af                                  	sw	$20, 44($sp)
  4007f0:	28 00 b3 af                                  	sw	$19, 40($sp)
  4007f4:	24 00 b2 af                                  	sw	$18, 36($sp)
  4007f8:	20 00 b1 af                                  	sw	$17, 32($sp)
  4007fc:	34 00 bf af                                  	sw	$ra, 52($sp)
  400800:	1c 00 b0 af                                  	sw	$16, 28($sp)
  400804:	21 98 80 00                                  	move	 $19, $4
  400808:	21 a0 a0 00                                  	move	 $20, $5
  40080c:	09 f8 20 03                                  	jalr	$25
  400810:	21 a8 c0 00                                  	move	 $21, $6
  400814:	10 00 bc 8f                                  	lw	$gp, 16($sp)
  400818:	00 00 00 00                                  	nop
  40081c:	30 80 91 8f                                  	lw	$17, -32720($gp)
  400820:	30 80 92 8f                                  	lw	$18, -32720($gp)
  400824:	00 00 00 00                                  	nop
  400828:	23 90 51 02                                  	subu	$18, $18, $17
  40082c:	83 90 12 00                                  	sra	$18, $18, 2
  400830:	09 00 40 12                                  	beqz	$18, 40
  400834:	21 80 00 00                                  	move	 $16, $zero
  400838:	00 00 39 8e                                  	lw	$25, 0($17)
  40083c:	21 20 60 02                                  	move	 $4, $19
  400840:	21 28 80 02                                  	move	 $5, $20
  400844:	21 30 a0 02                                  	move	 $6, $21
  400848:	09 f8 20 03                                  	jalr	$25
  40084c:	01 00 10 26                                  	addiu	$16, $16, 1
  400850:	f9 ff 12 16                                  	bne	$16, $18, 4294967272
  400854:	04 00 31 26                                  	addiu	$17, $17, 4
  400858:	34 00 bf 8f                                  	lw	$ra, 52($sp)
  40085c:	30 00 b5 8f                                  	lw	$21, 48($sp)
  400860:	2c 00 b4 8f                                  	lw	$20, 44($sp)
  400864:	28 00 b3 8f                                  	lw	$19, 40($sp)
  400868:	24 00 b2 8f                                  	lw	$18, 36($sp)
  40086c:	20 00 b1 8f                                  	lw	$17, 32($sp)
  400870:	1c 00 b0 8f                                  	lw	$16, 28($sp)
  400874:	08 00 e0 03                                  	jr	$ra
  400878:	38 00 bd 27                                  	addiu	$sp, $sp, 56

__libc_csu_fini:
  40087c:	08 00 e0 03                                  	jr	$ra
  400880:	00 00 00 00                                  	nop
  400884:	00 00 00 00                                  	nop
  400888:	00 00 00 00                                  	nop
  40088c:	00 00 00 00                                  	nop

__do_global_ctors_aux:
  400890:	41 00 02 3c                                  	lui	$2, 65
  400894:	64 09 59 8c                                  	lw	$25, 2404($2)
  400898:	ff ff 02 24                                  	addiu	$2, $zero, -1
  40089c:	12 00 22 13                                  	beq	$25, $2, 76
  4008a0:	00 00 00 00                                  	nop
  4008a4:	d8 ff bd 27                                  	addiu	$sp, $sp, -40
  4008a8:	1c 00 b0 af                                  	sw	$16, 28($sp)
  4008ac:	41 00 10 3c                                  	lui	$16, 65
  4008b0:	20 00 b1 af                                  	sw	$17, 32($sp)
  4008b4:	24 00 bf af                                  	sw	$ra, 36($sp)
  4008b8:	60 09 10 26                                  	addiu	$16, $16, 2400
  4008bc:	ff ff 11 24                                  	addiu	$17, $zero, -1
  4008c0:	09 f8 20 03                                  	jalr	$25
  4008c4:	fc ff 10 26                                  	addiu	$16, $16, -4
  4008c8:	04 00 19 8e                                  	lw	$25, 4($16)
  4008cc:	00 00 00 00                                  	nop
  4008d0:	fb ff 31 17                                  	bne	$25, $17, 4294967280
  4008d4:	00 00 00 00                                  	nop
  4008d8:	24 00 bf 8f                                  	lw	$ra, 36($sp)
  4008dc:	20 00 b1 8f                                  	lw	$17, 32($sp)
  4008e0:	1c 00 b0 8f                                  	lw	$16, 28($sp)
  4008e4:	28 00 bd 27                                  	addiu	$sp, $sp, 40
  4008e8:	08 00 e0 03                                  	jr	$ra
  4008ec:	00 00 00 00                                  	nop
Disassembly of section .MIPS.stubs:
.MIPS.stubs:
  4008f0:	10 80 99 8f                                  	lw	$25, -32752($gp)
  4008f4:	21 78 e0 03                                  	move	 $15, $ra
  4008f8:	09 f8 20 03                                  	jalr	$25
  4008fc:	0b 00 18 24                                  	addiu	$24, $zero, 11
  400900:	00 00 00 00                                  	nop
  400904:	00 00 00 00                                  	nop
  400908:	00 00 00 00                                  	nop
  40090c:	00 00 00 00                                  	nop
Disassembly of section .fini:
_fini:
  400910:	02 00 1c 3c                                  	lui	$gp, 2
  400914:	80 80 9c 27                                  	addiu	$gp, $gp, -32640
  400918:	21 e0 99 03                                  	addu	$gp, $gp, $25
  40091c:	e0 ff bd 27                                  	addiu	$sp, $sp, -32
  400920:	10 00 bc af                                  	sw	$gp, 16($sp)
  400924:	1c 00 bf af                                  	sw	$ra, 28($sp)
  400928:	01 00 11 04                                  	bal	8
  40092c:	00 00 00 00                                  	nop
  400930:	42 00 1c 3c                                  	lui	$gp, 66
  400934:	90 89 9c 27                                  	addiu	$gp, $gp, -30320
  400938:	24 80 99 8f                                  	lw	$25, -32732($gp)
  40093c:	00 00 00 00                                  	nop
  400940:	24 06 39 27                                  	addiu	$25, $25, 1572
  400944:	37 ff 11 04                                  	bal	4294966496
  400948:	00 00 00 00                                  	nop
  40094c:	1c 00 bf 8f                                  	lw	$ra, 28($sp)
  400950:	00 00 00 00                                  	nop
  400954:	08 00 e0 03                                  	jr	$ra
  400958:	20 00 bd 27                                  	addiu	$sp, $sp, 32
Sections:
Idx Name          Size      Address          Type
  0               00000000 0000000000000000 
  1 .interp       0000000d 0000000000400134 DATA 
  2 .note.ABI-tag 00000020 0000000000400144 
  3 .reginfo      00000018 0000000000400164 
  4 .dynamic      000000d8 000000000040017c 
  5 .hash         0000004c 0000000000400254 
  6 .dynsym       000000e0 00000000004002a0 
  7 .dynstr       000000d3 0000000000400380 
  8 .gnu.version  0000001c 0000000000400454 
  9 .gnu.version_r 00000020 0000000000400470 
 10 .init         00000098 0000000000400490 TEXT DATA 
 11 .text         000003c0 0000000000400530 TEXT DATA 
 12 .MIPS.stubs   00000020 00000000004008f0 TEXT DATA 
 13 .fini         0000004c 0000000000400910 TEXT DATA 
 14 .rodata       00000004 000000000040095c DATA 
 15 .eh_frame     00000004 0000000000400960 DATA 
 16 .ctors        00000008 0000000000410964 DATA 
 17 .dtors        00000008 000000000041096c DATA 
 18 .jcr          00000004 0000000000410974 DATA 
 19 .data         00000010 0000000000410980 DATA 
 20 .rld_map      00000004 0000000000410990 DATA 
 21 .got          00000044 00000000004109a0 DATA 
 22 .sdata        00000004 00000000004109e4 DATA 
 23 .bss          00000010 00000000004109f0 BSS
 24 .comment      00000011 0000000000000000 
 25 .pdr          00000080 0000000000000000 
 26 .debug_aranges 00000038 0000000000000000 
 27 .debug_info   000001c1 0000000000000000 
 28 .debug_abbrev 0000013a 0000000000000000 
 29 .debug_line   000000c2 0000000000000000 
 30 .debug_frame  00000050 0000000000000000 
 31 .debug_str    0000011a 0000000000000000 
 32 .debug_loc    000000cf 0000000000000000 
 33 .gnu.attributes 00000010 0000000000000000 
 34 .mdebug.abi32 00000000 0000000000000000 
 35 .shstrtab     0000015c 0000000000000000 
 36 .symtab       000005a0 0000000000000000 
 37 .strtab       000002de 0000000000000000 
Contents of section :
Contents of section .interp:
 400134 2f6c6962 2f6c642e 736f2e31 00        /lib/ld.so.1.
Contents of section .note.ABI-tag:
 400144 04000000 10000000 01000000 474e5500  ............GNU.
 400154 00000000 02000000 06000000 0c000000  ................
Contents of section .reginfo:
 400164 f60100b2 00000000 00000000 00000000  ................
 400174 00000000 90894100                    ......A.
Contents of section .dynamic:
 40017c 01000000 95000000 0c000000 90044000  ..............@.
 40018c 0d000000 10094000 04000000 54024000  ......@.....T.@.
 40019c 05000000 80034000 06000000 a0024000  ......@.......@.
 4001ac 0a000000 d3000000 0b000000 10000000  ................
 4001bc 16000070 90094100 15000000 00000000  ...p..A.........
 4001cc 03000000 a0094100 01000070 01000000  ......A....p....
 4001dc 05000070 02000000 06000070 00004000  ...p.......p..@.
 4001ec 0a000070 0c000000 11000070 0e000000  ...p.......p....
 4001fc 12000070 23000000 13000070 09000000  ...p#......p....
 40020c feffff6f 70044000 ffffff6f 01000000  ...op.@....o....
 40021c f0ffff6f 54044000 00000000 00000000  ...oT.@.........
 40022c 00000000 00000000 00000000 00000000  ................
 40023c 00000000 00000000 00000000 00000000  ................
 40024c 00000000 00000000                    ........
Contents of section .hash:
 400254 03000000 0e000000 08000000 09000000  ................
 400264 05000000 00000000 00000000 00000000  ................
 400274 0d000000 00000000 04000000 0b000000  ................
 400284 06000000 0a000000 07000000 0c000000  ................
 400294 03000000 01000000 02000000           ............
Contents of section .dynsym:
 4002a0 00000000 00000000 00000000 00000000  ................
 4002b0 11000000 7c084000 08000000 12000b00  ....|.@.........
 4002c0 9f000000 01000000 00000000 1300f1ff  ................
 4002d0 8c000000 20074000 48000000 12000b00  .... .@.H.......
 4002e0 ba000000 5c094000 04000000 11000e00  ....\.@.........
 4002f0 b0000000 90094100 00000000 11001400  ......A.........
 400300 01000000 d0074000 ac000000 12000b00  ......@.........
 400310 90000000 68074000 5c000000 12000b00  ....h.@.\.......
 400320 0b000000 90044000 00000000 12000a00  ......@.........
 400330 5e000000 00000000 00000000 20000000  ^........... ...
 400340 78000000 00000000 00000000 20000000  x........... ...
 400350 21000000 f0084000 00000000 12000000  !.....@.........
 400360 33000000 00000000 00000000 22000000  3..........."...
 400370 42000000 00000000 00000000 20000000  B........... ...
Contents of section .dynstr:
 400380 005f5f6c 6962635f 6373755f 696e6974  .__libc_csu_init
 400390 005f5f6c 6962635f 6373755f 66696e69  .__libc_csu_fini
 4003a0 005f5f6c 6962635f 73746172 745f6d61  .__libc_start_ma
 4003b0 696e005f 5f676d6f 6e5f7374 6172745f  in.__gmon_start_
 4003c0 5f005f49 544d5f64 65726567 69737465  _._ITM_deregiste
 4003d0 72544d43 6c6f6e65 5461626c 65005f49  rTMCloneTable._I
 4003e0 544d5f72 65676973 74657254 4d436c6f  TM_registerTMClo
 4003f0 6e655461 626c6500 5f4a765f 52656769  neTable._Jv_Regi
 400400 73746572 436c6173 73657300 7366655f  sterClasses.sfe_
 400410 6d61696e 006c6962 632e736f 2e36005f  main.libc.so.6._
 400420 44594e41 4d49435f 4c494e4b 494e4700  DYNAMIC_LINKING.
 400430 5f5f524c 445f4d41 50005f49 4f5f7374  __RLD_MAP._IO_st
 400440 64696e5f 75736564 00474c49 42435f32  din_used.GLIBC_2
 400450 2e3000                               .0.
Contents of section .gnu.version:
 400454 00000100 01000100 01000100 01000100  ................
 400464 01000000 00000200 00000000           ............
Contents of section .gnu.version_r:
 400470 01000100 95000000 10000000 00000000  ................
 400480 1069690d 00000200 c9000000 00000000  .ii.............
Contents of section .init:
 400490 02001c3c 00859c27 21e09903 e0ffbd27  ...<...'!......'
 4004a0 1000bcaf 1c00bfaf 4c80828f 00000000  ........L.......
 4004b0 05004010 00000000 4c80998f 00000000  ..@.....L.......
 4004c0 09f82003 00000000 01001104 00000000  .. .............
 4004d0 42001c3c 90899c27 2480998f 00000000  B..<...'$.......
 4004e0 d0063927 7a001104 00000000 1000bc8f  ..9'z...........
 4004f0 00000000 01001104 00000000 42001c3c  ............B..<
 400500 90899c27 2480998f 00000000 90083927  ...'$.........9'
 400510 df001104 00000000 1c00bf8f 00000000  ................
 400520 0800e003 2000bd27                    .... ..'
Contents of section .text:
 400530 2100e003 01001104 00000000 42001c3c  !...........B..<
 400540 90899c27 21f80000 1880848f 0000a58f  ...'!...........
 400550 0400a627 f8ff0124 24e8a103 e0ffbd27  ...'...$$......'
 400560 1c80878f 2080888f 00000000 1000a8af  .... ...........
 400570 1400a2af 1800bdaf 4880998f 00000000  ........H.......
 400580 09f82003 00000000 ffff0010 00000000  .. .............
 400590 4100043c 4100023c 94098424 97094224  A..<A..<...$..B$
 4005a0 23104400 0700422c 03004010 42001c3c  #.D...B,..@.B..<
 4005b0 0800e003 00000000 90899c27 5080998f  ...........'P...
 4005c0 00000000 faff2013 00000000 08002003  ...... ....... .
 4005d0 00000000 4100043c 4100023c 94098424  ....A..<A..<...$
 4005e0 94094224 23104400 83100200 c21f0200  ..B$#.D.........
 4005f0 21106200 43280200 0300a014 42001c3c  !.b.C(......B..<
 400600 0800e003 00000000 90899c27 4080998f  ...........'@...
 400610 00000000 faff2013 00000000 08002003  ...... ....... .
 400620 00000000 d0ffbd27 2800b3af 4100133c  .......'(...A..<
 400630 f0096292 2c00bfaf 2400b2af 2000b1af  ..b.,...$... ...
 400640 1c004014 1c00b0af 4100123c 4100113c  ..@.....A..<A..<
 400650 6c095226 70093126 4100103c 23883202  l.R&p.1&A..<#.2.
 400660 f409028e 83881100 ffff3126 2b185100  ..........1&+.Q.
 400670 0c006010 01004224 80180200 21184302  ..`...B$....!.C.
 400680 0000798c 00000000 09f82003 f40902ae  ..y....... .....
 400690 f409028e 00000000 2b185100 f6ff6014  ........+.Q...`.
 4006a0 01004224 6401100c 00000000 01000224  ..B$d..........$
 4006b0 f00962a2 2c00bf8f 2800b38f 2400b28f  ..b.,...(...$...
 4006c0 2000b18f 1c00b08f 0800e003 3000bd27   ...........0..'
 4006d0 4100043c 7409828c 00000000 0e004010  A..<t.........@.
 4006e0 00000000 42001c3c e0ffbd27 90899c27  ....B..<...'...'
 4006f0 4480998f 1c00bfaf 04002013 1000bcaf  D......... .....
 400700 09f82003 74098424 1000bc8f 1c00bf8f  .. .t..$........
 400710 75011008 2000bd27 75011008 00000000  u... ..'u.......
 400720 42001c3c 90899c27 f8ffbd27 0400beaf  B..<...'...'....
 400730 21f0a003 0800c4af 0c00c5af 0800c38f  !...............
 400740 0c00c28f 00000000 26106200 2b100200  ........&.b.+...
 400750 ff004230 21e8c003 0400be8f 0800bd27  ..B0!..........'
 400760 0800e003 00000000 42001c3c 90899c27  ........B..<...'
 400770 e0ffbd27 1c00bfaf 1800beaf 21f0a003  ...'........!...
 400780 1000bcaf 2000c4af 2400c5af 01000424  .... ...$......$
 400790 02000524 2880998f 00000000 e0ff1104  ...$(...........
 4007a0 00000000 1000dc8f 21100000 21e8c003  ........!...!...
 4007b0 1c00bf8f 1800be8f 2000bd27 0800e003  ........ ..'....
 4007c0 00000000 00000000 00000000 00000000  ................
 4007d0 02001c3c c0819c27 21e09903 c8ffbd27  ...<...'!......'
 4007e0 2c80998f 1000bcaf 3000b5af 2c00b4af  ,.......0...,...
 4007f0 2800b3af 2400b2af 2000b1af 3400bfaf  (...$... ...4...
 400800 1c00b0af 21988000 21a0a000 09f82003  ....!...!..... .
 400810 21a8c000 1000bc8f 00000000 3080918f  !...........0...
 400820 3080928f 00000000 23905102 83901200  0.......#.Q.....
 400830 09004012 21800000 0000398e 21206002  ..@.!.....9.! `.
 400840 21288002 2130a002 09f82003 01001026  !(..!0.... ....&
 400850 f9ff1216 04003126 3400bf8f 3000b58f  ......1&4...0...
 400860 2c00b48f 2800b38f 2400b28f 2000b18f  ,...(...$... ...
 400870 1c00b08f 0800e003 3800bd27 0800e003  ........8..'....
 400880 00000000 00000000 00000000 00000000  ................
 400890 4100023c 6409598c ffff0224 12002213  A..<d.Y....$..".
 4008a0 00000000 d8ffbd27 1c00b0af 4100103c  .......'....A..<
 4008b0 2000b1af 2400bfaf 60091026 ffff1124   ...$...`..&...$
 4008c0 09f82003 fcff1026 0400198e 00000000  .. ....&........
 4008d0 fbff3117 00000000 2400bf8f 2000b18f  ..1.....$... ...
 4008e0 1c00b08f 2800bd27 0800e003 00000000  ....(..'........
Contents of section .MIPS.stubs:
 4008f0 1080998f 2178e003 09f82003 0b001824  ....!x.... ....$
 400900 00000000 00000000 00000000 00000000  ................
Contents of section .fini:
 400910 02001c3c 80809c27 21e09903 e0ffbd27  ...<...'!......'
 400920 1000bcaf 1c00bfaf 01001104 00000000  ................
 400930 42001c3c 90899c27 2480998f 00000000  B..<...'$.......
 400940 24063927 37ff1104 00000000 1c00bf8f  $.9'7...........
 400950 00000000 0800e003 2000bd27           ........ ..'
Contents of section .rodata:
 40095c 01000200                             ....
Contents of section .eh_frame:
 400960 00000000                             ....
Contents of section .ctors:
 410964 ffffffff 00000000                    ........
Contents of section .dtors:
 41096c ffffffff 00000000                    ........
Contents of section .jcr:
 410974 00000000                             ....
Contents of section .data:
 410980 00000000 00000000 00000000 00000000  ................
Contents of section .rld_map:
 410990 00000000                             ....
Contents of section .got:
 4109a0 00000000 00000080 68074000 d0074000  ........h.@...@.
 4109b0 7c084000 00004000 20074000 90044000  |.@...@. .@...@.
 4109c0 64094100 00000000 00000000 00000000  d.A.............
 4109d0 00000000 00000000 f0084000 00000000  ..........@.....
 4109e0 00000000                             ....
Contents of section .sdata:
 4109e4 00000000                             ....
Contents of section .bss:
<skipping contents of bss section at [4109f0, 410a00)>
Contents of section .comment:
 0000 4743433a 2028474e 55292034 2e372e33  GCC: (GNU) 4.7.3
 0010 00                                   .
Contents of section .pdr:
 0000 20074000 00000040 fcffffff 00000000   .@....@........
 0010 00000000 08000000 1e000000 1f000000  ................
 0020 68074000 000000c0 fcffffff 00000000  h.@.............
 0030 00000000 20000000 1e000000 1f000000  .... ...........
 0040 d0074000 00003f80 fcffffff 00000000  ..@...?.........
 0050 00000000 38000000 1d000000 1f000000  ....8...........
 0060 7c084000 00000000 00000000 00000000  |.@.............
 0070 00000000 00000000 1d000000 1f000000  ................
Contents of section .debug_aranges:
 0000 14000000 02000000 00000400 00000000  ................
 0010 00000000 00000000 1c000000 02008900  ................
 0020 00000400 00000000 d0074000 b4000000  ..........@.....
 0030 00000000 00000000                    ........
Contents of section .debug_info:
 0000 85000000 02000000 00000401 0e000000  ................
 0010 01d00000 003f0000 00000000 00020108  .....?..........
 0020 31000000 0202077b 00000002 04072400  1......{......$.
 0030 00000204 071f0000 00020106 33000000  ............3...
 0040 0202059d 00000003 0405696e 74000208  ..........int...
 0050 05000000 00020807 1a000000 02040505  ................
 0060 00000002 0407a700 00000201 063a0000  .............:..
 0070 00048e00 00000118 83000000 0105035c  ...............\
 0080 09400005 47000000 00340100 0002003e  .@..G....4.....>
 0090 00000004 010e0000 0001cc00 00003f00  ..............?.
 00a0 0000d007 40008408 40002700 00000204  ....@...@.'.....
 00b0 05696e74 0003b500 000002d5 37000000  .int........7...
 00c0 04040724 00000005 01bc0000 00016901  ...$..........i.
 00d0 d0074000 7c084000 00000000 01c90000  ..@.|.@.........
 00e0 00061001 00000169 25000000 2c000000  .......i%...,...
 00f0 06150100 000169c9 00000058 00000006  ......i....X....
 0100 b0000000 0169c900 00008400 000007ea  .....i..........
 0110 00000001 7adc0000 00081c08 40005808  ....z.......@.X.
 0120 4000c300 00000969 00017b2c 000000b0  @......i..{,....
 0130 0000000a 50084000 0b015602 85000b01  ....P.@...V.....
 0140 55028400 0b015402 83000000 0c140840  U.....T........@
 0150 00000d04 cf000000 0d04d500 00000401  ................
 0160 063a0000 000e2c00 00000f01 00010000  .:....,.........
 0170 0183017c 08400084 08400002 8d000110  ...|.@...@......
 0180 17010000 01010000 11001201 17010000  ................
 0190 13250000 0013c900 000013c9 00000000  .%..............
 01a0 0d040101 000014d7 00000001 3bf60000  ............;...
 01b0 00010114 ef000000 013df600 00000101  .........=......
 01c0 00                                   .
Contents of section .debug_abbrev:
 0000 01110125 0e130b03 0e1b0e10 06000002  ...%............
 0010 24000b0b 3e0b030e 00000324 000b0b3e  $...>......$...>
 0020 0b030800 00043400 030e3a0b 3b0b4913  ......4...:.;.I.
 0030 3f0c020a 00000526 00491300 00000111  ?......&.I......
 0040 01250e13 0b030e1b 0e110112 01100600  .%..............
 0050 00022400 0b0b3e0b 03080000 03160003  ..$...>.........
 0060 0e3a0b3b 0b491300 00042400 0b0b3e0b  .:.;.I....$...>.
 0070 030e0000 052e013f 0c030e3a 0b3b0b27  .......?...:.;.'
 0080 0c110112 01400697 420c0113 00000605  .....@..B.......
 0090 00030e3a 0b3b0b49 13020600 00073400  ...:.;.I......4.
 00a0 030e3a0b 3b0b4913 0000080b 01110112  ..:.;.I.........
 00b0 01011300 00093400 03083a0b 3b0b4913  ......4...:.;.I.
 00c0 02060000 0a898201 01110100 000b8a82  ................
 00d0 0100020a 91420a00 000c8982 01001101  .....B..........
 00e0 00000d0f 000b0b49 1300000e 26004913  .......I....&.I.
 00f0 00000f2e 003f0c03 0e3a0b3b 0b270c11  .....?...:.;.'..
 0100 01120140 0a97420c 00001001 01491301  ...@..B......I..
 0110 13000011 21000000 12150127 0c011300  ....!......'....
 0120 00130500 49130000 14340003 0e3a0b3b  ....I....4...:.;
 0130 0b49133f 0c3c0c00 0000               .I.?.<....
Contents of section .debug_line:
 0000 23000000 02001d00 00000101 fb0e0d00  #...............
 0010 01010101 00000001 00000100 696e6974  ............init
 0020 2e630000 00000097 00000002 00640000  .c...........d..
 0030 000101fb 0e0d0001 01010100 00000100  ................
 0040 00012f6f 70742f6d 69707365 6c2f7573  ../opt/mipsel/us
 0050 722f6c69 622f6763 632f6d69 7073656c  r/lib/gcc/mipsel
 0060 2d6c696e 75782d67 6e752f34 2e372e33  -linux-gnu/4.7.3
 0070 2f696e63 6c756465 0000656c 662d696e  /include..elf-in
 0080 69742e63 00000000 73746464 65662e68  it.c....stddef.h
 0090 00010000 00000502 d0074000 03e90001  ..........@.....
 00a0 030ef203 724a08e4 030e82f4 083d0002  ....rJ.......=..
 00b0 04028300 02040208 73840224 19020800  ........s..$....
 00c0 0101                                 ..
Contents of section .debug_frame:
 0000 0c000000 ffffffff 0100017c 1f0d1d00  ...........|....
 0010 2c000000 00000000 d0074000 ac000000  ,.........@.....
 0020 500e3864 95029403 93049205 91069f01  P.8d............
 0030 90070278 0e00d0d1 d2d3d4d5 df000000  ...x............
 0040 0c000000 00000000 7c084000 08000000  ........|.@.....
Contents of section .debug_str:
 0000 6c6f6e67 206c6f6e 6720696e 7400474e  long long int.GN
 0010 55204320 342e372e 33006c6f 6e67206c  U C 4.7.3.long l
 0020 6f6e6720 756e7369 676e6564 20696e74  ong unsigned int
 0030 00756e73 69676e65 64206368 6172002f  .unsigned char./
 0040 686f6d65 2f6e6f74 726f6f74 2f736665  home/notroot/sfe
 0050 5f766d2f 7472756e 6b2f746f 6f6c6368  _vm/trunk/toolch
 0060 61696e2f 676c6962 632f676c 6962632d  ain/glibc/glibc-
 0070 322e3136 2e302f63 73750073 686f7274  2.16.0/csu.short
 0080 20756e73 69676e65 6420696e 74005f49   unsigned int._I
 0090 4f5f7374 64696e5f 75736564 0073686f  O_stdin_used.sho
 00a0 72742069 6e740073 697a6574 79706500  rt int.sizetype.
 00b0 656e7670 0073697a 655f7400 5f5f6c69  envp.size_t.__li
 00c0 62635f63 73755f69 6e697400 656c662d  bc_csu_init.elf-
 00d0 696e6974 2e63005f 5f696e69 745f6172  init.c.__init_ar
 00e0 7261795f 73746172 74007369 7a65005f  ray_start.size._
 00f0 5f696e69 745f6172 7261795f 656e6400  _init_array_end.
 0100 5f5f6c69 62635f63 73755f66 696e6900  __libc_csu_fini.
 0110 61726763 00617267 7600               argc.argv.
Contents of section .debug_loc:
 0000 00000000 10000000 02008d00 10000000  ................
 0010 ac000000 02008d38 ac000000 ac000000  .......8........
 0020 02008d00 00000000 00000000 0c000000  ................
 0030 43000000 01005443 00000098 00000001  C.....TC........
 0040 00639800 0000ac00 00000400 f301549f  .c............T.
 0050 00000000 00000000 0c000000 43000000  ............C...
 0060 01005543 00000094 00000001 00649400  ..UC.........d..
 0070 0000ac00 00000400 f301559f 00000000  ..........U.....
 0080 00000000 0c000000 43000000 01005643  ........C.....VC
 0090 00000090 00000001 00659000 0000ac00  .........e......
 00a0 00000400 f301569f 00000000 00000000  ......V.........
 00b0 4c000000 68000000 0200309f 80000000  L...h.....0.....
 00c0 88000000 01006000 00000000 000000    ......`........
Contents of section .gnu.attributes:
 0000 410f0000 00676e75 00010700 00000401  A....gnu........
Contents of section .mdebug.abi32:
Contents of section .shstrtab:
 0000 002e7379 6d746162 002e7374 72746162  ..symtab..strtab
 0010 002e7368 73747274 6162002e 696e7465  ..shstrtab..inte
 0020 7270002e 6e6f7465 2e414249 2d746167  rp..note.ABI-tag
 0030 002e7265 67696e66 6f002e64 796e616d  ..reginfo..dynam
 0040 6963002e 68617368 002e6479 6e73796d  ic..hash..dynsym
 0050 002e6479 6e737472 002e676e 752e7665  ..dynstr..gnu.ve
 0060 7273696f 6e002e67 6e752e76 65727369  rsion..gnu.versi
 0070 6f6e5f72 002e696e 6974002e 74657874  on_r..init..text
 0080 002e4d49 50532e73 74756273 002e6669  ..MIPS.stubs..fi
 0090 6e69002e 726f6461 7461002e 65685f66  ni..rodata..eh_f
 00a0 72616d65 002e6374 6f727300 2e64746f  rame..ctors..dto
 00b0 7273002e 6a637200 2e646174 61002e72  rs..jcr..data..r
 00c0 6c645f6d 6170002e 676f7400 2e736461  ld_map..got..sda
 00d0 7461002e 62737300 2e636f6d 6d656e74  ta..bss..comment
 00e0 002e7064 72002e64 65627567 5f617261  ..pdr..debug_ara
 00f0 6e676573 002e6465 6275675f 696e666f  nges..debug_info
 0100 002e6465 6275675f 61626272 6576002e  ..debug_abbrev..
 0110 64656275 675f6c69 6e65002e 64656275  debug_line..debu
 0120 675f6672 616d6500 2e646562 75675f73  g_frame..debug_s
 0130 7472002e 64656275 675f6c6f 63002e67  tr..debug_loc..g
 0140 6e752e61 74747269 62757465 73002e6d  nu.attributes..m
 0150 64656275 672e6162 69333200           debug.abi32.
Contents of section .symtab:
 0000 00000000 00000000 00000000 00000000  ................
 0010 00000000 34014000 00000000 03000100  ....4.@.........
 0020 00000000 44014000 00000000 03000200  ....D.@.........
 0030 00000000 64014000 00000000 03000300  ....d.@.........
 0040 00000000 7c014000 00000000 03000400  ....|.@.........
 0050 00000000 54024000 00000000 03000500  ....T.@.........
 0060 00000000 a0024000 00000000 03000600  ......@.........
 0070 00000000 80034000 00000000 03000700  ......@.........
 0080 00000000 54044000 00000000 03000800  ....T.@.........
 0090 00000000 70044000 00000000 03000900  ....p.@.........
 00a0 00000000 90044000 00000000 03000a00  ......@.........
 00b0 00000000 30054000 00000000 03000b00  ....0.@.........
 00c0 00000000 f0084000 00000000 03000c00  ......@.........
 00d0 00000000 10094000 00000000 03000d00  ......@.........
 00e0 00000000 5c094000 00000000 03000e00  ....\.@.........
 00f0 00000000 60094000 00000000 03000f00  ....`.@.........
 0100 00000000 64094100 00000000 03001000  ....d.A.........
 0110 00000000 6c094100 00000000 03001100  ....l.A.........
 0120 00000000 74094100 00000000 03001200  ....t.A.........
 0130 00000000 80094100 00000000 03001300  ......A.........
 0140 00000000 90094100 00000000 03001400  ......A.........
 0150 00000000 a0094100 00000000 03001500  ......A.........
 0160 00000000 e4094100 00000000 03001600  ......A.........
 0170 00000000 f0094100 00000000 03001700  ......A.........
 0180 00000000 00000000 00000000 03001800  ................
 0190 00000000 00000000 00000000 03001900  ................
 01a0 00000000 00000000 00000000 03001a00  ................
 01b0 00000000 00000000 00000000 03001b00  ................
 01c0 00000000 00000000 00000000 03001c00  ................
 01d0 00000000 00000000 00000000 03001d00  ................
 01e0 00000000 00000000 00000000 03001e00  ................
 01f0 00000000 00000000 00000000 03001f00  ................
 0200 00000000 00000000 00000000 03002000  .............. .
 0210 00000000 00000000 00000000 03002100  ..............!.
 0220 00000000 00000000 00000000 03002200  ..............".
 0230 01000000 00000000 00000000 0400f1ff  ................
 0240 3e000000 88054000 00000000 00000b00  >.....@.........
 0250 42000000 00000000 00000000 0400f1ff  B...............
 0260 00000000 00000000 00000000 0400f1ff  ................
 0270 49000000 00000000 00000000 0400f1ff  I...............
 0280 54000000 64094100 00000000 01001000  T...d.A.........
 0290 62000000 6c094100 00000000 01001100  b...l.A.........
 02a0 70000000 74094100 00000000 01001200  p...t.A.........
 02b0 7d000000 90054000 00000000 02000b00  }.....@.........
 02c0 92000000 d4054000 00000000 02000b00  ......@.........
 02d0 a5000000 24064000 00000000 02000b00  ....$.@.........
 02e0 bb000000 f0094100 01000000 01001700  ......A.........
 02f0 ca000000 f4094100 04000000 01001700  ......A.........
 0300 d8000000 d0064000 00000000 02000b00  ......@.........
 0310 49000000 00000000 00000000 0400f1ff  I...............
 0320 e4000000 68094100 00000000 01001000  ....h.A.........
 0330 f1000000 60094000 00000000 01000f00  ....`.@.........
 0340 ff000000 74094100 00000000 01001200  ....t.A.........
 0350 0b010000 90084000 00000000 02000b00  ......@.........
 0360 21010000 00000000 00000000 0400f1ff  !...............
 0370 28010000 00000000 00000000 0400f1ff  (...............
 0380 00000000 00000000 00000000 0400f1ff  ................
 0390 33010000 64094100 00000000 00001000  3...d.A.........
 03a0 44010000 7c014000 00000000 01000400  D...|.@.........
 03b0 4d010000 64094100 00000000 00001000  M...d.A.........
 03c0 60010000 90894100 00000000 0000f1ff  `.....A.........
 03d0 64010000 7c084000 08000000 12000b00  d...|.@.........
 03e0 74010000 01000000 00000000 1300f1ff  t...............
 03f0 85010000 00000000 00000000 20000000  ............ ...
 0400 a1010000 80094100 00000000 21001300  ......A.....!...
 0410 ac010000 e8094100 00000000 10001600  ......A.........
 0420 b3010000 10094000 00000000 12000d00  ......@.........
 0430 b9010000 20074000 48000000 12000b00  .... .@.H.......
 0440 c2010000 70094100 00000000 11021100  ....p.A.........
 0450 cf010000 80094100 00000000 11001300  ......A.........
 0460 dc010000 00000000 00000000 22000000  ............"...
 0470 eb010000 e4094100 00000000 11021600  ......A.........
 0480 f8010000 5c094000 04000000 11000e00  ....\.@.........
 0490 07020000 80094100 00000000 10001300  ......A.........
 04a0 0e020000 f0084000 00000000 12000000  ......@.........
 04b0 2b020000 90094100 00000000 11001400  +.....A.........
 04c0 35020000 d0074000 ac000000 12000b00  5.....@.........
 04d0 45020000 000a4100 00000000 10001700  E.....A.........
 04e0 4a020000 e8094100 00000000 10001700  J.....A.........
 04f0 56020000 68074000 5c000000 12000b00  V...h.@.\.......
 0500 5b020000 00000000 00000000 11000000  [...............
 0510 64020000 30054000 00000000 12000b00  d...0.@.........
 0520 6c020000 00000000 00000000 11000000  l...............
 0530 7b020000 30054000 00000000 10000b00  {...0.@.........
 0540 82020000 00000000 00000000 20000000  ............ ...
 0550 96020000 94094100 00000000 11021400  ......A.........
 0560 a2020000 a0094100 00000000 11001500  ......A.........
 0570 b8020000 e8094100 00000000 10001700  ......A.........
 0580 be020000 00000000 00000000 20000000  ............ ...
 0590 d8020000 90044000 00000000 12000a00  ......@.........
Contents of section .strtab:
 0000 002f686f 6d652f6e 6f74726f 6f742f73  ./home/notroot/s
 0010 66655f76 6d2f7472 756e6b2f 746f6f6c  fe_vm/trunk/tool
 0020 63686169 6e2f676c 6962632f 6275696c  chain/glibc/buil
 0030 642f6373 752f7374 6172742e 6f00686c  d/csu/start.o.hl
 0040 7400696e 69742e63 00637274 73747566  t.init.c.crtstuf
 0050 662e6300 5f5f4354 4f525f4c 4953545f  f.c.__CTOR_LIST_
 0060 5f005f5f 44544f52 5f4c4953 545f5f00  _.__DTOR_LIST__.
 0070 5f5f4a43 525f4c49 53545f5f 00646572  __JCR_LIST__.der
 0080 65676973 7465725f 746d5f63 6c6f6e65  egister_tm_clone
 0090 73007265 67697374 65725f74 6d5f636c  s.register_tm_cl
 00a0 6f6e6573 005f5f64 6f5f676c 6f62616c  ones.__do_global
 00b0 5f64746f 72735f61 75780063 6f6d706c  _dtors_aux.compl
 00c0 65746564 2e353536 31006474 6f725f69  eted.5561.dtor_i
 00d0 64782e35 35363300 6672616d 655f6475  dx.5563.frame_du
 00e0 6d6d7900 5f5f4354 4f525f45 4e445f5f  mmy.__CTOR_END__
 00f0 005f5f46 52414d45 5f454e44 5f5f005f  .__FRAME_END__._
 0100 5f4a4352 5f454e44 5f5f005f 5f646f5f  _JCR_END__.__do_
 0110 676c6f62 616c5f63 746f7273 5f617578  global_ctors_aux
 0120 00636d70 332e6300 656c662d 696e6974  .cmp3.c.elf-init
 0130 2e63005f 5f696e69 745f6172 7261795f  .c.__init_array_
 0140 656e6400 5f44594e 414d4943 005f5f69  end._DYNAMIC.__i
 0150 6e69745f 61727261 795f7374 61727400  nit_array_start.
 0160 5f677000 5f5f6c69 62635f63 73755f66  _gp.__libc_csu_f
 0170 696e6900 5f44594e 414d4943 5f4c494e  ini._DYNAMIC_LIN
 0180 4b494e47 005f4954 4d5f6465 72656769  KING._ITM_deregi
 0190 73746572 544d436c 6f6e6554 61626c65  sterTMCloneTable
 01a0 00646174 615f7374 61727400 5f656461  .data_start._eda
 01b0 7461005f 66696e69 00736665 5f6d6169  ta._fini.sfe_mai
 01c0 6e005f5f 44544f52 5f454e44 5f5f005f  n.__DTOR_END__._
 01d0 5f646174 615f7374 61727400 5f5f676d  _data_start.__gm
 01e0 6f6e5f73 74617274 5f5f005f 5f64736f  on_start__.__dso
 01f0 5f68616e 646c6500 5f494f5f 73746469  _handle._IO_stdi
 0200 6e5f7573 6564005f 66646174 61005f5f  n_used._fdata.__
 0210 6c696263 5f737461 72745f6d 61696e40  libc_start_main@
 0220 40474c49 42435f32 2e30005f 5f524c44  @GLIBC_2.0.__RLD
 0230 5f4d4150 005f5f6c 6962635f 6373755f  _MAP.__libc_csu_
 0240 696e6974 005f656e 64005f5f 6273735f  init._end.__bss_
 0250 73746172 74006d61 696e005f 67705f64  start.main._gp_d
 0260 69737000 5f5f7374 61727400 5f5f676e  isp.__start.__gn
 0270 755f6c6f 63616c5f 6770005f 66746578  u_local_gp._ftex
 0280 74005f4a 765f5265 67697374 6572436c  t._Jv_RegisterCl
 0290 61737365 73005f5f 544d435f 454e445f  asses.__TMC_END_
 02a0 5f005f47 4c4f4241 4c5f4f46 46534554  _._GLOBAL_OFFSET
 02b0 5f544142 4c455f00 5f666273 73005f49  _TABLE_._fbss._I
 02c0 544d5f72 65676973 74657254 4d436c6f  TM_registerTMClo
 02d0 6e655461 626c6500 5f696e69 7400      neTable._init.
SYMBOL TABLE:
00000000         *UND*	00000000 
00400134 l    d  .interp	00000000 .interp
00400144 l    d  .note.ABI-tag	00000000 .note.ABI-tag
00400164 l    d  .reginfo	00000000 .reginfo
0040017c l    d  .dynamic	00000000 .dynamic
00400254 l    d  .hash	00000000 .hash
004002a0 l    d  .dynsym	00000000 .dynsym
00400380 l    d  .dynstr	00000000 .dynstr
00400454 l    d  .gnu.version	00000000 .gnu.version
00400470 l    d  .gnu.version_r	00000000 .gnu.version_r
00400490 l    d  .init	00000000 .init
00400530 l    d  .text	00000000 .text
004008f0 l    d  .MIPS.stubs	00000000 .MIPS.stubs
00400910 l    d  .fini	00000000 .fini
0040095c l    d  .rodata	00000000 .rodata
00400960 l    d  .eh_frame	00000000 .eh_frame
00410964 l    d  .ctors	00000000 .ctors
0041096c l    d  .dtors	00000000 .dtors
00410974 l    d  .jcr	00000000 .jcr
00410980 l    d  .data	00000000 .data
00410990 l    d  .rld_map	00000000 .rld_map
004109a0 l    d  .got	00000000 .got
004109e4 l    d  .sdata	00000000 .sdata
004109f0 l    d  .bss	00000000 .bss
00000000 l    d  .comment	00000000 .comment
00000000 l    d  .pdr	00000000 .pdr
00000000 l    d  .debug_aranges	00000000 .debug_aranges
00000000 l    d  .debug_info	00000000 .debug_info
00000000 l    d  .debug_abbrev	00000000 .debug_abbrev
00000000 l    d  .debug_line	00000000 .debug_line
00000000 l    d  .debug_frame	00000000 .debug_frame
00000000 l    d  .debug_str	00000000 .debug_str
00000000 l    d  .debug_loc	00000000 .debug_loc
00000000 l    d  .gnu.attributes	00000000 .gnu.attributes
00000000 l    d  .mdebug.abi32	00000000 .mdebug.abi32
00000000 l    df *ABS*	00000000 /home/notroot/sfe_vm/trunk/toolchain/glibc/build/csu/start.o
00400588         .text	00000000 hlt
00000000 l    df *ABS*	00000000 init.c
00000000 l    df *ABS*	00000000 
00000000 l    df *ABS*	00000000 crtstuff.c
00410964 l       .ctors	00000000 __CTOR_LIST__
0041096c l       .dtors	00000000 __DTOR_LIST__
00410974 l       .jcr	00000000 __JCR_LIST__
00400590 l     F .text	00000000 deregister_tm_clones
004005d4 l     F .text	00000000 register_tm_clones
00400624 l     F .text	00000000 __do_global_dtors_aux
004109f0 l       .bss	00000001 completed.5561
004109f4 l       .bss	00000004 dtor_idx.5563
004006d0 l     F .text	00000000 frame_dummy
00000000 l    df *ABS*	00000000 crtstuff.c
00410968 l       .ctors	00000000 __CTOR_END__
00400960 l       .eh_frame	00000000 __FRAME_END__
00410974 l       .jcr	00000000 __JCR_END__
00400890 l     F .text	00000000 __do_global_ctors_aux
00000000 l    df *ABS*	00000000 cmp3.c
00000000 l    df *ABS*	00000000 elf-init.c
00000000 l    df *ABS*	00000000 
00410964         .ctors	00000000 __init_array_end
0040017c l       .dynamic	00000000 _DYNAMIC
00410964         .ctors	00000000 __init_array_start
00418990         *ABS*	00000000 _gp
0040087c g     F .text	00000008 __libc_csu_fini
00000001 g    d  *ABS*	00000000 _DYNAMIC_LINKING
00000000  w      *UND*	00000000 _ITM_deregisterTMCloneTable
00410980 gw      .data	00000000 data_start
004109e8         .sdata	00000000 _edata
00400910 g     F .fini	00000000 _fini
00400720 g     F .text	00000048 sfe_main
00410970 g       .dtors	00000000 __DTOR_END__
00410980 g       .data	00000000 __data_start
00000000 gw    F *UND*	00000000 __gmon_start__
004109e4 g       .sdata	00000000 __dso_handle
0040095c g       .rodata	00000004 _IO_stdin_used
00410980         .data	00000000 _fdata
00000000 g     F *UND*	00000000 __libc_start_main@@GLIBC_2.0
00410990 g       .rld_map	00000000 __RLD_MAP
004007d0 g     F .text	000000ac __libc_csu_init
00410a00         .bss	00000000 _end
004109e8         .bss	00000000 __bss_start
00400768 g     F .text	0000005c main
00000000 g       *UND*	00000000 _gp_disp
00400530 g     F .text	00000000 __start
00000000 g       *UND*	00000000 __gnu_local_gp
00400530         .text	00000000 _ftext
00000000  w      *UND*	00000000 _Jv_RegisterClasses
00410994 g       .rld_map	00000000 __TMC_END__
004109a0 g       .got	00000000 _GLOBAL_OFFSET_TABLE_
004109e8         .bss	00000000 _fbss
00000000  w      *UND*	00000000 _ITM_registerTMCloneTable
00400490 g     F .init	00000000 _init
